; Function Attrs: mustprogress nofree norecurse nosync nounwind willreturn memory(readwrite, inaccessiblemem: none) uwtable
define range(i32 0, 3) i32 @ff_vvc_sao_type_idx_decode(ptr noundef readonly captures(none) %0) local_unnamed_addr #2 {
  %2 = getelementptr inbounds nuw i8, ptr %0, i64 4580560
  %3 = load ptr, ptr %2, align 16, !tbaa !67
  %4 = getelementptr inbounds nuw i8, ptr %3, i64 2672
  %5 = getelementptr inbounds nuw i8, ptr %3, i64 514
  %6 = getelementptr inbounds nuw i8, ptr %3, i64 2676
  %7 = load i32, ptr %6, align 4, !tbaa !100
  %8 = ashr i32 %7, 5
  %9 = getelementptr inbounds nuw i8, ptr %3, i64 516
  %10 = load i16, ptr %9, align 2, !tbaa !58
  %11 = zext i16 %10 to i32
  %12 = load i16, ptr %5, align 2, !tbaa !58
  %13 = zext i16 %12 to i32
  %14 = shl nuw nsw i32 %13, 4
  %15 = add nuw nsw i32 %14, %11
  %.not.i = icmp samesign ult i32 %15, 16384
  %16 = sub nsw i32 32767, %15
  %17 = select i1 %.not.i, i32 %15, i32 %16
  %18 = ashr i32 %17, 9
  %19 = mul nsw i32 %18, %8
  %20 = ashr i32 %19, 1
  %21 = add nsw i32 %20, 4
  %22 = sub nsw i32 %7, %21
  %23 = shl i32 %22, 17
  %24 = load i32, ptr %4, align 8, !tbaa !70
  %25 = icmp slt i32 %23, %24
  %26 = select i1 %25, i32 %23, i32 0
  %27 = sub nsw i32 %24, %26
  %28 = select i1 %25, i32 %21, i32 %22
  %29 = sext i32 %28 to i64
  %30 = getelementptr inbounds i8, ptr @ff_h264_cabac_tables, i64 %29
  %31 = load i8, ptr %30, align 1, !tbaa !97
  %32 = zext i8 %31 to i32
  %33 = shl i32 %28, %32
  store i32 %33, ptr %6, align 4, !tbaa !100
  %34 = shl i32 %27, %32
  store i32 %34, ptr %4, align 8, !tbaa !70
  %35 = and i32 %34, 65535
  %.not42.i = icmp eq i32 %35, 0
  br i1 %.not42.i, label %36, label %vvc_get_cabac.exit

36:                                               ; preds = %1
  %37 = add nsw i32 %34, -1
  %38 = xor i32 %37, %34
  %39 = lshr i32 %38, 15
  %40 = zext nneg i32 %39 to i64
  %41 = getelementptr inbounds nuw i8, ptr @ff_h264_cabac_tables, i64 %40
  %42 = load i8, ptr %41, align 1, !tbaa !97
  %43 = zext i8 %42 to i32
  %44 = sub nsw i32 7, %43
  %45 = getelementptr inbounds nuw i8, ptr %3, i64 2688
  %46 = load ptr, ptr %45, align 8, !tbaa !68
  %47 = load i8, ptr %46, align 1, !tbaa !97
  %48 = zext i8 %47 to i32
  %49 = shl nuw nsw i32 %48, 9
  %50 = getelementptr inbounds nuw i8, ptr %46, i64 1
  %51 = load i8, ptr %50, align 1, !tbaa !97
  %52 = zext i8 %51 to i32
  %53 = shl nuw nsw i32 %52, 1
  %54 = or disjoint i32 %53, %49
  %55 = add nsw i32 %54, -65535
  %56 = shl nsw i32 %55, %44
  %57 = add i32 %56, %34
  store i32 %57, ptr %4, align 8, !tbaa !70
  %58 = getelementptr inbounds nuw i8, ptr %3, i64 2696
  %59 = load ptr, ptr %58, align 8, !tbaa !71
  %60 = icmp ult ptr %46, %59
  br i1 %60, label %61, label %vvc_get_cabac.exit

61:                                               ; preds = %36
  %62 = getelementptr inbounds nuw i8, ptr %46, i64 2
  store ptr %62, ptr %45, align 8, !tbaa !68
  br label %vvc_get_cabac.exit

vvc_get_cabac.exit:                               ; preds = %1, %36, %61
  %63 = phi i32 [ %34, %1 ], [ %57, %36 ], [ %57, %61 ]
  %64 = lshr i32 %15, 14
  %65 = zext i1 %25 to i32
  %66 = xor i32 %64, %65
  %67 = getelementptr inbounds nuw i8, ptr %3, i64 518
  %68 = load i8, ptr %67, align 2, !tbaa !97
  %69 = zext i8 %68 to i32
  %70 = lshr i32 %13, %69
  %71 = sub nsw i32 %13, %70
  %72 = mul nuw nsw i32 %66, 1023
  %73 = lshr i32 %72, %69
  %74 = add nsw i32 %71, %73
  %75 = trunc i32 %74 to i16
  store i16 %75, ptr %5, align 2, !tbaa !58
  %76 = getelementptr inbounds nuw i8, ptr %3, i64 519
  %77 = load i8, ptr %76, align 1, !tbaa !97
  %78 = zext i8 %77 to i32
  %79 = lshr i32 %11, %78
  %80 = sub nsw i32 %11, %79
  %81 = mul nuw nsw i32 %66, 16383
  %82 = lshr i32 %81, %78
  %83 = add nsw i32 %80, %82
  %84 = trunc i32 %83 to i16
  store i16 %84, ptr %9, align 2, !tbaa !58
  %.not = icmp eq i32 %64, %65
  br i1 %.not, label %110, label %85

85:                                               ; preds = %vvc_get_cabac.exit
  %86 = shl nsw i32 %63, 1
  store i32 %86, ptr %4, align 8, !tbaa !70
  %87 = and i32 %63, 32767
  %.not.i4 = icmp eq i32 %87, 0
  br i1 %.not.i4, label %88, label %refill.exit.i

88:                                               ; preds = %85
  %89 = getelementptr inbounds nuw i8, ptr %3, i64 2688
  %90 = load ptr, ptr %89, align 8, !tbaa !68
  %91 = load i8, ptr %90, align 1, !tbaa !97
  %92 = zext i8 %91 to i32
  %93 = shl nuw nsw i32 %92, 9
  %94 = getelementptr inbounds nuw i8, ptr %90, i64 1
  %95 = load i8, ptr %94, align 1, !tbaa !97
  %96 = zext i8 %95 to i32
  %97 = shl nuw nsw i32 %96, 1
  %98 = or disjoint i32 %97, %93
  %99 = add i32 %86, -65535
  %100 = add i32 %99, %98
  store i32 %100, ptr %4, align 8, !tbaa !70
  %101 = getelementptr inbounds nuw i8, ptr %3, i64 2696
  %102 = load ptr, ptr %101, align 8, !tbaa !71
  %103 = icmp ult ptr %90, %102
  br i1 %103, label %104, label %refill.exit.i

104:                                              ; preds = %88
  %105 = getelementptr inbounds nuw i8, ptr %90, i64 2
  store ptr %105, ptr %89, align 8, !tbaa !68
  br label %refill.exit.i

refill.exit.i:                                    ; preds = %104, %88, %85
  %106 = phi i32 [ %100, %104 ], [ %100, %88 ], [ %86, %85 ]
  %107 = shl i32 %33, 17
  %108 = icmp slt i32 %106, %107
  br i1 %108, label %110, label %get_cabac_bypass.exit

get_cabac_bypass.exit:                            ; preds = %refill.exit.i
  %109 = sub nsw i32 %106, %107
  store i32 %109, ptr %4, align 8, !tbaa !70
  br label %110

110:                                              ; preds = %get_cabac_bypass.exit, %refill.exit.i, %vvc_get_cabac.exit
  %.0 = phi i32 [ 0, %vvc_get_cabac.exit ], [ 2, %get_cabac_bypass.exit ], [ 1, %refill.exit.i ]
  ret i32 %.0
}